; Function Attrs: mustprogress nounwind willreturn uwtable
define void @Gia_ManCounterExampleValueStop(ptr noundef captures(none) %0) local_unnamed_addr #5 {
  %2 = getelementptr inbounds nuw i8, ptr %0, i64 776
  %3 = load ptr, ptr %2, align 8, !tbaa !60
  %.not = icmp eq ptr %3, null
  br i1 %.not, label %5, label %4

4:                                                ; preds = %1
  tail call void @free(ptr noundef nonnull %3) #21
  br label %5

5:                                                ; preds = %1, %4
  store ptr null, ptr %2, align 8, !tbaa !60
  ret void
}